target datalayout = "e-m:e-p270:32:32-p271:32:32-p272:64:64-i64:64-i128:128-f80:128-n8:16:32:64-S128"
target triple = "x86_64-pc-linux-gnu"

%struct.lexbor_avl = type { ptr, ptr }
%struct.lexbor_avl_node = type { i64, i16, ptr, ptr, ptr, ptr }

; Function Attrs: nounwind uwtable
define internal ptr @lexbor_avl_find_min(ptr noundef %0) #0 {
  %2 = alloca ptr, align 8
  %3 = alloca ptr, align 8
  store ptr %0, ptr %3, align 8
  %4 = load ptr, ptr %3, align 8
  %5 = icmp eq ptr %4, null
  br i1 %5, label %6, label %7

6:                                                ; preds = %1
  store ptr null, ptr %2, align 8
  br label %19

7:                                                ; preds = %1
  br label %8

8:                                                ; preds = %13, %7
  %9 = load ptr, ptr %3, align 8
  %10 = getelementptr inbounds %struct.lexbor_avl_node, ptr %9, i32 0, i32 4
  %11 = load ptr, ptr %10, align 8
  %12 = icmp ne ptr %11, null
  br i1 %12, label %13, label %17

13:                                               ; preds = %8
  %14 = load ptr, ptr %3, align 8
  %15 = getelementptr inbounds %struct.lexbor_avl_node, ptr %14, i32 0, i32 4
  %16 = load ptr, ptr %15, align 8
  store ptr %16, ptr %3, align 8
  br label %8

17:                                               ; preds = %8
  %18 = load ptr, ptr %3, align 8
  store ptr %18, ptr %2, align 8
  br label %19

19:                                               ; preds = %17, %6
  %20 = load ptr, ptr %2, align 8
  ret ptr %20
}

; Function Attrs: nounwind uwtable
define hidden void @lexbor_avl_remove_by_node(ptr noundef %0, ptr noundef %1, ptr noundef %2) #0 {
  %4 = alloca ptr, align 8
  %5 = alloca ptr, align 8
  %6 = alloca ptr, align 8
  store ptr %0, ptr %4, align 8
  store ptr %1, ptr %5, align 8
  store ptr %2, ptr %6, align 8
  %7 = load ptr, ptr %6, align 8
  %8 = getelementptr inbounds %struct.lexbor_avl_node, ptr %7, i32 0, i32 3
  %9 = load ptr, ptr %8, align 8
  %10 = call ptr @lexbor_avl_find_min(ptr noundef %9)
  %11 = load ptr, ptr %4, align 8
  %12 = getelementptr inbounds %struct.lexbor_avl, ptr %11, i32 0, i32 1
  store ptr %10, ptr %12, align 8
  %13 = load ptr, ptr %6, align 8
  %14 = load ptr, ptr %4, align 8
  %15 = getelementptr inbounds %struct.lexbor_avl, ptr %14, i32 0, i32 1
  %16 = load ptr, ptr %15, align 8
  %17 = load ptr, ptr %5, align 8
  call void @lexbor_avl_rotate_for_delete(ptr noundef %13, ptr noundef %16, ptr noundef %17)
  %18 = load ptr, ptr %4, align 8
  %19 = getelementptr inbounds %struct.lexbor_avl, ptr %18, i32 0, i32 0
  %20 = load ptr, ptr %19, align 8
  %21 = load ptr, ptr %6, align 8
  %22 = call ptr @lexbor_dobject_free(ptr noundef %20, ptr noundef %21)
  ret void
}