; Function Attrs: nounwind uwtable
define hidden void @lexbor_avl_remove_by_node(ptr nocapture noundef %0, ptr nocapture noundef writeonly %1, ptr noundef %2) local_unnamed_addr #0 {
  %4 = getelementptr inbounds i8, ptr %2, i64 24
  %5 = load ptr, ptr %4, align 8
  %6 = icmp eq ptr %5, null
  br i1 %6, label %lexbor_avl_find_min.exit, label %.preheader.i

.preheader.i:                                     ; preds = %3, %.preheader.i
  %.0.i = phi ptr [ %8, %.preheader.i ], [ %5, %3 ]
  %7 = getelementptr inbounds i8, ptr %.0.i, i64 32
  %8 = load ptr, ptr %7, align 8
  %.not.i = icmp eq ptr %8, null
  br i1 %.not.i, label %lexbor_avl_find_min.exit, label %.preheader.i

lexbor_avl_find_min.exit:                         ; preds = %.preheader.i, %3
  %.05.i = phi ptr [ null, %3 ], [ %.0.i, %.preheader.i ]
  %9 = getelementptr inbounds i8, ptr %0, i64 8
  store ptr %.05.i, ptr %9, align 8
  tail call fastcc void @lexbor_avl_rotate_for_delete(ptr noundef %2, ptr noundef %.05.i, ptr noundef %1)
  %10 = load ptr, ptr %0, align 8
  %11 = tail call ptr @lexbor_dobject_free(ptr noundef %10, ptr noundef %2) #8
  ret void
}